; Function Attrs: mustprogress uwtable
define internal void @_ZN7rocksdb12_GLOBAL__N_116MockWritableFile8TruncateEmRKNS_9IOOptionsEPNS_14IODebugContextE(ptr dead_on_unwind noalias writable writeonly sret(%"class.rocksdb::IOStatus") align 8 captures(none) %0, ptr noundef nonnull readonly align 8 captures(none) dereferenceable(64) %1, i64 noundef %2, ptr nonnull readnone align 8 captures(none) %3, ptr readnone captures(none) %4) unnamed_addr #1 align 2 personality ptr @__gxx_personality_v0 {
  %6 = getelementptr inbounds nuw i8, ptr %1, i64 40
  %7 = load ptr, ptr %6, align 8, !tbaa !251
  %8 = getelementptr inbounds nuw i8, ptr %7, i64 40
  tail call void @_ZN7rocksdb4port5Mutex4LockEv(ptr noundef nonnull align 8 dereferenceable(40) %8)
  %9 = getelementptr inbounds nuw i8, ptr %7, i64 120
  %10 = load atomic i64, ptr %9 seq_cst, align 8
  %11 = icmp ult i64 %2, %10
  br i1 %11, label %12, label %19

12:                                               ; preds = %5
  %13 = getelementptr inbounds nuw i8, ptr %7, i64 88
  invoke void @_ZNSt7__cxx1112basic_stringIcSt11char_traitsIcESaIcEE6resizeEmc(ptr noundef nonnull align 8 dereferenceable(32) %13, i64 noundef %2, i8 noundef signext 0)
          to label %_ZNSt7__cxx1112basic_stringIcSt11char_traitsIcESaIcEE6resizeEm.exit.i unwind label %14

_ZNSt7__cxx1112basic_stringIcSt11char_traitsIcESaIcEE6resizeEm.exit.i: ; preds = %12
  store atomic i64 %2, ptr %9 seq_cst, align 8
  br label %19

14:                                               ; preds = %12
  %15 = landingpad { ptr, i32 }
          cleanup
  invoke void @_ZN7rocksdb4port5Mutex6UnlockEv(ptr noundef nonnull align 8 dereferenceable(40) %8)
          to label %_ZN7rocksdb9MutexLockD2Ev.exit.i unwind label %16

16:                                               ; preds = %14
  %17 = landingpad { ptr, i32 }
          catch ptr null
  %18 = extractvalue { ptr, i32 } %17, 0
  tail call void @__clang_call_terminate(ptr %18) #31
  unreachable

_ZN7rocksdb9MutexLockD2Ev.exit.i:                 ; preds = %14
  resume { ptr, i32 } %15

19:                                               ; preds = %_ZNSt7__cxx1112basic_stringIcSt11char_traitsIcESaIcEE6resizeEm.exit.i, %5
  invoke void @_ZN7rocksdb4port5Mutex6UnlockEv(ptr noundef nonnull align 8 dereferenceable(40) %8)
          to label %_ZN7rocksdb7MemFile8TruncateEmRKNS_9IOOptionsEPNS_14IODebugContextE.exit unwind label %20

20:                                               ; preds = %19
  %21 = landingpad { ptr, i32 }
          catch ptr null
  %22 = extractvalue { ptr, i32 } %21, 0
  tail call void @__clang_call_terminate(ptr %22) #31
  unreachable

_ZN7rocksdb7MemFile8TruncateEmRKNS_9IOOptionsEPNS_14IODebugContextE.exit: ; preds = %19
  store i8 0, ptr %0, align 8, !tbaa !114, !alias.scope !624
  %23 = getelementptr inbounds nuw i8, ptr %0, i64 1
  store i8 0, ptr %23, align 1, !tbaa !139, !alias.scope !624
  %24 = getelementptr inbounds nuw i8, ptr %0, i64 2
  %25 = getelementptr inbounds nuw i8, ptr %0, i64 8
  store ptr null, ptr %25, align 8, !tbaa !143, !alias.scope !624
  store i32 0, ptr %24, align 2, !alias.scope !624
  ret void
}